; Function Attrs: inlinehint nounwind uwtable
define internal fastcc void @strbuf_setlen(ptr noundef captures(none) %0, i64 noundef %1) unnamed_addr #6 {
  %3 = load i64, ptr %0, align 8, !tbaa !22
  %spec.select = tail call i64 @llvm.usub.sat.i64(i64 %3, i64 1)
  %4 = icmp ugt i64 %1, %spec.select
  br i1 %4, label %5, label %6

5:                                                ; preds = %2
  tail call void (ptr, i32, ptr, ...) @BUG_fl(ptr noundef nonnull @.str.95, i32 noundef 167, ptr noundef nonnull @.str.96) #26
  unreachable

6:                                                ; preds = %2
  %7 = getelementptr inbounds nuw i8, ptr %0, i64 8
  store i64 %1, ptr %7, align 8, !tbaa !20
  %8 = getelementptr inbounds nuw i8, ptr %0, i64 16
  %9 = load ptr, ptr %8, align 8, !tbaa !14
  %.not9 = icmp eq ptr %9, @strbuf_slopbuf
  br i1 %.not9, label %12, label %10

10:                                               ; preds = %6
  %11 = getelementptr inbounds nuw i8, ptr %9, i64 %1
  store i8 0, ptr %11, align 1, !tbaa !4
  br label %12

12:                                               ; preds = %6, %10
  ret void
}